; Function Attrs: mustprogress uwtable
define hidden noundef ptr @_Z14mk_horn_tacticR11ast_managerRK10params_ref(ptr noundef nonnull align 8 dereferenceable(976) %m, ptr noundef nonnull align 8 dereferenceable(8) %p) local_unnamed_addr #3 personality ptr @__gxx_personality_v0 {
entry:
  %call = tail call noalias noundef ptr @_ZN6memory8allocateEm(i64 noundef 48)
  %m_ref_count.i.i = getelementptr inbounds i8, ptr %call, i64 8
  store i32 0, ptr %m_ref_count.i.i, align 8
  store ptr getelementptr inbounds ({ [25 x ptr] }, ptr @_ZTV11horn_tactic, i64 0, i32 0, i64 2), ptr %call, align 8
  %m_is_simplify.i = getelementptr inbounds i8, ptr %call, i64 12
  store i8 0, ptr %m_is_simplify.i, align 4
  %m_params.i = getelementptr inbounds i8, ptr %call, i64 16
  tail call void @_ZN10params_refC1ERKS_(ptr noundef nonnull align 8 dereferenceable(8) %m_params.i, ptr noundef nonnull align 8 dereferenceable(8) %p)
  %m_stats.i = getelementptr inbounds i8, ptr %call, i64 24
  tail call void @llvm.memset.p0.i64(ptr noundef nonnull align 8 dereferenceable(16) %m_stats.i, i8 0, i64 16, i1 false)
  %call.i = invoke noalias noundef ptr @_ZN6memory8allocateEm(i64 noundef 4432)
          to label %invoke.cont6.i unwind label %lpad5.i

invoke.cont6.i:                                   ; preds = %entry
  invoke void @_ZN11horn_tactic3impC2EbR11ast_managerRK10params_ref(ptr noundef nonnull align 8 dereferenceable(4432) %call.i, i1 noundef zeroext false, ptr noundef nonnull align 8 dereferenceable(976) %m, ptr noundef nonnull align 8 dereferenceable(8) %p)
          to label %_ZN11horn_tacticC2EbR11ast_managerRK10params_ref.exit unwind label %lpad5.i

lpad5.i:                                          ; preds = %invoke.cont6.i, %entry
  %0 = landingpad { ptr, i32 }
          cleanup
  tail call void @_ZN10statisticsD2Ev(ptr noundef nonnull align 8 dereferenceable(16) %m_stats.i) #14
  tail call void @_ZN10params_refD1Ev(ptr noundef nonnull align 8 dereferenceable(8) %m_params.i) #14
  resume { ptr, i32 } %0

_ZN11horn_tacticC2EbR11ast_managerRK10params_ref.exit: ; preds = %invoke.cont6.i
  %m_imp.i = getelementptr inbounds i8, ptr %call, i64 40
  store ptr %call.i, ptr %m_imp.i, align 8
  %call1 = tail call noundef ptr @_Z5cleanP6tactic(ptr noundef nonnull %call)
  ret ptr %call1
}